; Function Attrs: nofree nounwind uwtable
define i32 @Kit_DsdGetSupports(ptr noundef captures(none) initializes((16, 24)) %0) local_unnamed_addr #10 {
  %2 = getelementptr inbounds nuw i8, ptr %0, i64 4
  %3 = load i16, ptr %2, align 4, !tbaa !38
  %4 = zext i16 %3 to i64
  %5 = shl nuw nsw i64 %4, 2
  %6 = tail call noalias ptr @malloc(i64 noundef %5) #26
  %7 = getelementptr inbounds nuw i8, ptr %0, i64 16
  store ptr %6, ptr %7, align 8, !tbaa !45
  %8 = getelementptr inbounds nuw i8, ptr %0, i64 6
  %9 = load i16, ptr %8, align 2, !tbaa !51
  %10 = lshr i16 %9, 1
  %11 = load i16, ptr %0, align 8, !tbaa !34
  %12 = icmp ult i16 %10, %11
  br i1 %12, label %Kit_DsdNtkRoot.exit, label %13

13:                                               ; preds = %1
  %14 = getelementptr inbounds nuw i8, ptr %0, i64 24
  %15 = load ptr, ptr %14, align 8, !tbaa !40
  %narrow.i = sub nuw nsw i16 %10, %11
  %16 = zext nneg i16 %narrow.i to i64
  %17 = getelementptr inbounds nuw ptr, ptr %15, i64 %16
  %18 = load ptr, ptr %17, align 8, !tbaa !41
  br label %Kit_DsdNtkRoot.exit

Kit_DsdNtkRoot.exit:                              ; preds = %1, %13
  %19 = phi ptr [ %18, %13 ], [ null, %1 ]
  %20 = load i32, ptr %19, align 4
  %21 = and i32 %20, 448
  %22 = icmp eq i32 %21, 64
  br i1 %22, label %23, label %24

23:                                               ; preds = %Kit_DsdNtkRoot.exit
  store i32 0, ptr %6, align 4, !tbaa !20
  %.pre = load i32, ptr %19, align 4
  br label %24

24:                                               ; preds = %23, %Kit_DsdNtkRoot.exit
  %25 = phi i32 [ %.pre, %23 ], [ %20, %Kit_DsdNtkRoot.exit ]
  %26 = and i32 %25, 448
  %27 = icmp eq i32 %26, 128
  br i1 %27, label %28, label %42

28:                                               ; preds = %24
  %29 = getelementptr inbounds nuw i8, ptr %19, i64 4
  %30 = load i16, ptr %29, align 4, !tbaa !49
  %31 = lshr i16 %30, 1
  %32 = zext nneg i16 %31 to i32
  %.not.i = icmp eq ptr %6, null
  br i1 %.not.i, label %Kit_DsdLitSupport.exit, label %33

33:                                               ; preds = %28
  %34 = icmp ult i16 %31, %11
  br i1 %34, label %35, label %37

35:                                               ; preds = %33
  %36 = shl nuw i32 1, %32
  br label %Kit_DsdLitSupport.exit

37:                                               ; preds = %33
  %narrow = sub nuw nsw i16 %31, %11
  %38 = zext nneg i16 %narrow to i64
  %39 = getelementptr inbounds nuw i32, ptr %6, i64 %38
  %40 = load i32, ptr %39, align 4, !tbaa !20
  br label %Kit_DsdLitSupport.exit

Kit_DsdLitSupport.exit:                           ; preds = %28, %35, %37
  %41 = phi i32 [ %36, %35 ], [ %40, %37 ], [ 0, %28 ]
  store i32 %41, ptr %6, align 4, !tbaa !20
  br label %45

42:                                               ; preds = %24
  %43 = zext i16 %9 to i32
  %44 = tail call i32 @Kit_DsdGetSupports_rec(ptr noundef nonnull %0, i32 noundef %43)
  br label %45

45:                                               ; preds = %42, %Kit_DsdLitSupport.exit
  %.0 = phi i32 [ %41, %Kit_DsdLitSupport.exit ], [ %44, %42 ]
  ret i32 %.0
}